target datalayout = "e-m:e-p270:32:32-p271:32:32-p272:64:64-i64:64-i128:128-f80:128-n8:16:32:64-S128"
target triple = "x86_64-pc-linux-gnu"

%struct.AVRational = type { i32, i32 }
%struct.MOVAtom = type { i32, i64 }
%struct.MOVContext = type { ptr, ptr, i32, i64, i32, i32, i32, i32, i32, i32, ptr, i32, ptr, ptr, i32, %struct.MOVFragment, ptr, i32, i32, i32, ptr, i32, i32, i32, i32, i32, i32, i32, i64, i32, i32, ptr, i32, i32, i32, i32, i32, %struct.MOVFragmentIndex, i32, i32, [20 x i8], [20 x i8], ptr, i32, ptr, i32, ptr, i32, ptr, i32, ptr, ptr, i32, i32, [3 x [3 x i32]], i32, i32, i32, i32, i32, ptr, i32, ptr, i32, i32, i64, i32 }
%struct.MOVFragment = type { i32, i32, i64, i64, i64, i32, i32, i32, i32 }
%struct.MOVFragmentIndex = type { i32, i32, i32, i32, ptr }
%struct.AVFormatContext = type { ptr, ptr, ptr, ptr, ptr, i32, i32, ptr, i32, ptr, i32, ptr, ptr, i64, i64, i64, i32, i32, i32, i64, i64, ptr, i32, i32, ptr, i32, i32, i32, i32, ptr, i64, i32, i32, %struct.AVIOInterruptCB, i32, i32, i32, i32, i64, i32, i32, i32, i32, i32, i32, i32, i32, i32, i32, i32, i32, i64, i32, i32, i32, i32, i32, ptr, ptr, ptr, ptr, i32, ptr, ptr, ptr, ptr, i32, ptr, ptr, i64, ptr, ptr, ptr, i64 }
%struct.AVIOInterruptCB = type { ptr, ptr }
%struct.AVStream = type { ptr, i32, i32, ptr, ptr, %struct.AVRational, i64, i64, i64, i32, i32, %struct.AVRational, ptr, %struct.AVRational, %struct.AVPacket, i32, %struct.AVRational, i32 }
%struct.AVPacket = type { ptr, i64, i64, ptr, i32, i32, i32, ptr, i32, i64, i64, ptr, ptr, %struct.AVRational }
%struct.MOVStreamContext = type { ptr, i32, i32, i32, i32, i32, i32, ptr, i32, i32, ptr, i32, i32, ptr, i32, ptr, i32, i32, ptr, i32, ptr, i32, i32, i32, ptr, ptr, i32, i32, i32, i32, i32, i32, ptr, i32, i32, ptr, i32, i64, i64, i32, i64, ptr, ptr, i32, i32, i32, i32, i16, i32, ptr, i32, i32, i32, i32, i32, i32, i32, i32, i32, [256 x i32], i32, i64, i32, i8, i64, i32, i32, ptr, i32, ptr, ptr, i32, ptr, i32, ptr, i32, i32, i32, i64, ptr, ptr, i32, i32, i32, ptr, ptr, i64, ptr, i64, ptr, i64, ptr, i64, ptr, i64, i32, i32, %struct.anon, ptr, i32 }
%struct.anon = type { ptr, ptr, i32, ptr, ptr }
%struct.AVStereo3D = type { i32, i32, i32, i32, i32, %struct.AVRational, %struct.AVRational }

@.str.310 = private unnamed_addr constant [31 x i8] c"Invalid size of hfov box: %lu\0A\00", align 1

; Function Attrs: nounwind uwtable
define internal i32 @mov_read_hfov(ptr noundef %0, ptr noundef %1, i32 %2, i64 %3) #0 {
  %5 = alloca i32, align 4
  %6 = alloca %struct.MOVAtom, align 8
  %7 = alloca ptr, align 8
  %8 = alloca ptr, align 8
  %9 = alloca ptr, align 8
  %10 = alloca ptr, align 8
  %11 = alloca i32, align 4
  %12 = getelementptr inbounds nuw { i32, i64 }, ptr %6, i32 0, i32 0
  store i32 %2, ptr %12, align 8
  %13 = getelementptr inbounds nuw { i32, i64 }, ptr %6, i32 0, i32 1
  store i64 %3, ptr %13, align 8
  store ptr %0, ptr %7, align 8, !tbaa !4
  store ptr %1, ptr %8, align 8, !tbaa !9
  call void @llvm.lifetime.start.p0(i64 8, ptr %9) #14
  call void @llvm.lifetime.start.p0(i64 8, ptr %10) #14
  %14 = load ptr, ptr %7, align 8, !tbaa !4
  %15 = getelementptr inbounds nuw %struct.MOVContext, ptr %14, i32 0, i32 1
  %16 = load ptr, ptr %15, align 8, !tbaa !13
  %17 = getelementptr inbounds nuw %struct.AVFormatContext, ptr %16, i32 0, i32 6
  %18 = load i32, ptr %17, align 4, !tbaa !30
  %19 = icmp ult i32 %18, 1
  br i1 %19, label %20, label %21

20:                                               ; preds = %4
  store i32 0, ptr %5, align 4
  store i32 1, ptr %11, align 4
  br label %78

21:                                               ; preds = %4
  %22 = load ptr, ptr %7, align 8, !tbaa !4
  %23 = getelementptr inbounds nuw %struct.MOVContext, ptr %22, i32 0, i32 1
  %24 = load ptr, ptr %23, align 8, !tbaa !13
  %25 = getelementptr inbounds nuw %struct.AVFormatContext, ptr %24, i32 0, i32 7
  %26 = load ptr, ptr %25, align 8, !tbaa !41
  %27 = load ptr, ptr %7, align 8, !tbaa !4
  %28 = getelementptr inbounds nuw %struct.MOVContext, ptr %27, i32 0, i32 1
  %29 = load ptr, ptr %28, align 8, !tbaa !13
  %30 = getelementptr inbounds nuw %struct.AVFormatContext, ptr %29, i32 0, i32 6
  %31 = load i32, ptr %30, align 4, !tbaa !30
  %32 = sub i32 %31, 1
  %33 = zext i32 %32 to i64
  %34 = getelementptr inbounds nuw ptr, ptr %26, i64 %33
  %35 = load ptr, ptr %34, align 8, !tbaa !42
  store ptr %35, ptr %9, align 8, !tbaa !42
  %36 = load ptr, ptr %9, align 8, !tbaa !42
  %37 = getelementptr inbounds nuw %struct.AVStream, ptr %36, i32 0, i32 4
  %38 = load ptr, ptr %37, align 8, !tbaa !44
  store ptr %38, ptr %10, align 8, !tbaa !51
  %39 = getelementptr inbounds nuw %struct.MOVAtom, ptr %6, i32 0, i32 1
  %40 = load i64, ptr %39, align 8, !tbaa !58
  %41 = icmp ne i64 %40, 4
  br i1 %41, label %42, label %48

42:                                               ; preds = %21
  %43 = load ptr, ptr %7, align 8, !tbaa !4
  %44 = getelementptr inbounds nuw %struct.MOVContext, ptr %43, i32 0, i32 1
  %45 = load ptr, ptr %44, align 8, !tbaa !13
  %46 = getelementptr inbounds nuw %struct.MOVAtom, ptr %6, i32 0, i32 1
  %47 = load i64, ptr %46, align 8, !tbaa !58
  call void (ptr, i32, ptr, ...) @av_log(ptr noundef %45, i32 noundef 16, ptr noundef @.str.310, i64 noundef %47)
  store i32 -1094995529, ptr %5, align 4
  store i32 1, ptr %11, align 4
  br label %78

48:                                               ; preds = %21
  %49 = load ptr, ptr %10, align 8, !tbaa !51
  %50 = getelementptr inbounds nuw %struct.MOVStreamContext, ptr %49, i32 0, i32 85
  %51 = load ptr, ptr %50, align 8, !tbaa !197
  %52 = icmp ne ptr %51, null
  br i1 %52, label %65, label %53

53:                                               ; preds = %48
  %54 = load ptr, ptr %10, align 8, !tbaa !51
  %55 = getelementptr inbounds nuw %struct.MOVStreamContext, ptr %54, i32 0, i32 86
  %56 = call ptr @av_stereo3d_alloc_size(ptr noundef %55)
  %57 = load ptr, ptr %10, align 8, !tbaa !51
  %58 = getelementptr inbounds nuw %struct.MOVStreamContext, ptr %57, i32 0, i32 85
  store ptr %56, ptr %58, align 8, !tbaa !197
  %59 = load ptr, ptr %10, align 8, !tbaa !51
  %60 = getelementptr inbounds nuw %struct.MOVStreamContext, ptr %59, i32 0, i32 85
  %61 = load ptr, ptr %60, align 8, !tbaa !197
  %62 = icmp ne ptr %61, null
  br i1 %62, label %64, label %63

63:                                               ; preds = %53
  store i32 -12, ptr %5, align 4
  store i32 1, ptr %11, align 4
  br label %78

64:                                               ; preds = %53
  br label %65

65:                                               ; preds = %64, %48
  %66 = load ptr, ptr %8, align 8, !tbaa !9
  %67 = call i32 @avio_rb32(ptr noundef %66)
  %68 = load ptr, ptr %10, align 8, !tbaa !51
  %69 = getelementptr inbounds nuw %struct.MOVStreamContext, ptr %68, i32 0, i32 85
  %70 = load ptr, ptr %69, align 8, !tbaa !197
  %71 = getelementptr inbounds nuw %struct.AVStereo3D, ptr %70, i32 0, i32 6
  %72 = getelementptr inbounds nuw %struct.AVRational, ptr %71, i32 0, i32 0
  store i32 %67, ptr %72, align 4, !tbaa !539
  %73 = load ptr, ptr %10, align 8, !tbaa !51
  %74 = getelementptr inbounds nuw %struct.MOVStreamContext, ptr %73, i32 0, i32 85
  %75 = load ptr, ptr %74, align 8, !tbaa !197
  %76 = getelementptr inbounds nuw %struct.AVStereo3D, ptr %75, i32 0, i32 6
  %77 = getelementptr inbounds nuw %struct.AVRational, ptr %76, i32 0, i32 1
  store i32 1000, ptr %77, align 4, !tbaa !540
  store i32 0, ptr %5, align 4
  store i32 1, ptr %11, align 4
  br label %78

78:                                               ; preds = %65, %63, %42, %20
  call void @llvm.lifetime.end.p0(i64 8, ptr %10) #14
  call void @llvm.lifetime.end.p0(i64 8, ptr %9) #14
  %79 = load i32, ptr %5, align 4
  ret i32 %79
}