; Function Attrs: nounwind uwtable
define internal range(i32 -1094995529, 1) i32 @mov_read_hfov(ptr noundef readonly captures(none) %0, ptr noundef %1, i32 %2, i64 %3) #0 {
  %5 = getelementptr inbounds nuw i8, ptr %0, i64 8
  %6 = load ptr, ptr %5, align 8, !tbaa !4
  %7 = getelementptr inbounds nuw i8, ptr %6, i64 44
  %8 = load i32, ptr %7, align 4, !tbaa !25
  %9 = icmp eq i32 %8, 0
  br i1 %9, label %31, label %10

10:                                               ; preds = %4
  %11 = getelementptr inbounds nuw i8, ptr %6, i64 48
  %12 = load ptr, ptr %11, align 8, !tbaa !37
  %13 = add i32 %8, -1
  %14 = zext i32 %13 to i64
  %15 = getelementptr inbounds nuw ptr, ptr %12, i64 %14
  %16 = load ptr, ptr %15, align 8, !tbaa !38
  %17 = getelementptr inbounds nuw i8, ptr %16, i64 24
  %18 = load ptr, ptr %17, align 8, !tbaa !40
  %.not = icmp eq i64 %3, 4
  br i1 %.not, label %20, label %19

19:                                               ; preds = %10
  tail call void (ptr, i32, ptr, ...) @av_log(ptr noundef nonnull %6, i32 noundef 16, ptr noundef nonnull @.str.310, i64 noundef %3) #16
  br label %31

20:                                               ; preds = %10
  %21 = getelementptr inbounds nuw i8, ptr %18, i64 1512
  %22 = load ptr, ptr %21, align 8, !tbaa !278
  %.not15 = icmp eq ptr %22, null
  br i1 %.not15, label %23, label %26

23:                                               ; preds = %20
  %24 = getelementptr inbounds nuw i8, ptr %18, i64 1520
  %25 = tail call ptr @av_stereo3d_alloc_size(ptr noundef nonnull %24) #16
  store ptr %25, ptr %21, align 8, !tbaa !278
  %.not16 = icmp eq ptr %25, null
  br i1 %.not16, label %31, label %26

26:                                               ; preds = %23, %20
  %27 = tail call i32 @avio_rb32(ptr noundef %1) #16
  %28 = load ptr, ptr %21, align 8, !tbaa !278
  %29 = getelementptr inbounds nuw i8, ptr %28, i64 28
  store i32 %27, ptr %29, align 4, !tbaa !610
  %30 = getelementptr inbounds nuw i8, ptr %28, i64 32
  store i32 1000, ptr %30, align 4, !tbaa !611
  br label %31

31:                                               ; preds = %23, %4, %26, %19
  %.0 = phi i32 [ -1094995529, %19 ], [ 0, %26 ], [ 0, %4 ], [ -12, %23 ]
  ret i32 %.0
}